target datalayout = "e-m:e-p270:32:32-p271:32:32-p272:64:64-i64:64-i128:128-f80:128-n8:16:32:64-S128"
target triple = "x86_64-pc-linux-gnu"

%struct.rb_data_type_struct = type { ptr, %struct.anon, ptr, ptr, i64 }
%struct.anon = type { ptr, ptr, ptr, ptr, [1 x ptr] }

@ossl_evp_pkey_type = external constant %struct.rb_data_type_struct, align 8
@rb_eRuntimeError = external global i64, align 8
@.str.23 = private unnamed_addr constant [25 x i8] c"PKEY wasn't initialized!\00", align 1
@.str.24 = private unnamed_addr constant [19 x i8] c"THIS IS NOT A DSA!\00", align 1
@DSA_PRIVATE.rbimpl_id = internal global i64 0, align 8
@.str.25 = private unnamed_addr constant [8 x i8] c"private\00", align 1

; Function Attrs: inlinehint nounwind sspstrong willreturn memory(read) uwtable
define internal i64 @rb_intern_const(ptr noundef nonnull %0) #8 {
  %2 = alloca ptr, align 8
  %3 = alloca i64, align 8
  store ptr %0, ptr %2, align 8, !tbaa !31
  call void @llvm.lifetime.start.p0(i64 8, ptr %3) #11
  %4 = load ptr, ptr %2, align 8, !tbaa !31
  %5 = call i64 @strlen(ptr noundef %4) #13
  store i64 %5, ptr %3, align 8, !tbaa !6
  %6 = load ptr, ptr %2, align 8, !tbaa !31
  %7 = load i64, ptr %3, align 8, !tbaa !6
  %8 = call i64 @rb_intern2(ptr noundef %6, i64 noundef %7)
  call void @llvm.lifetime.end.p0(i64 8, ptr %3) #11
  ret i64 %8
}

; Function Attrs: inlinehint nounwind sspstrong memory(argmem: readwrite, inaccessiblemem: readwrite) uwtable
define internal i64 @rbimpl_intern_const(ptr noundef nonnull %0, ptr noundef nonnull %1) #9 {
  %3 = alloca ptr, align 8
  %4 = alloca ptr, align 8
  store ptr %0, ptr %3, align 8, !tbaa !12
  store ptr %1, ptr %4, align 8, !tbaa !31
  br label %5

5:                                                ; preds = %10, %2
  %6 = load ptr, ptr %3, align 8, !tbaa !12
  %7 = load i64, ptr %6, align 8, !tbaa !6
  %8 = icmp ne i64 %7, 0
  %9 = xor i1 %8, true
  br i1 %9, label %10, label %14

10:                                               ; preds = %5
  %11 = load ptr, ptr %4, align 8, !tbaa !31
  %12 = call i64 @rb_intern_const(ptr noundef %11) #13
  %13 = load ptr, ptr %3, align 8, !tbaa !12
  store i64 %12, ptr %13, align 8, !tbaa !6
  br label %5, !llvm.loop !41

14:                                               ; preds = %5
  %15 = load ptr, ptr %3, align 8, !tbaa !12
  %16 = load i64, ptr %15, align 8, !tbaa !6
  ret i64 %16
}

; Function Attrs: inlinehint nounwind sspstrong uwtable
define internal i32 @DSA_HAS_PRIVATE(ptr noundef %0) #5 {
  %2 = alloca ptr, align 8
  %3 = alloca ptr, align 8
  store ptr %0, ptr %2, align 8, !tbaa !19
  call void @llvm.lifetime.start.p0(i64 8, ptr %3) #11
  %4 = load ptr, ptr %2, align 8, !tbaa !19
  call void @DSA_get0_key(ptr noundef %4, ptr noundef null, ptr noundef %3)
  %5 = load ptr, ptr %3, align 8, !tbaa !25
  %6 = icmp ne ptr %5, null
  %7 = xor i1 %6, true
  %8 = xor i1 %7, true
  %9 = zext i1 %8 to i32
  call void @llvm.lifetime.end.p0(i64 8, ptr %3) #11
  ret i32 %9
}

; Function Attrs: inlinehint nounwind sspstrong uwtable
define internal i32 @DSA_PRIVATE(i64 noundef %0, ptr noundef %1) #5 {
  %3 = alloca i64, align 8
  %4 = alloca ptr, align 8
  %5 = alloca i64, align 8
  store i64 %0, ptr %3, align 8, !tbaa !6
  store ptr %1, ptr %4, align 8, !tbaa !19
  %6 = load ptr, ptr %4, align 8, !tbaa !19
  %7 = call i32 @DSA_HAS_PRIVATE(ptr noundef %6)
  %8 = icmp ne i32 %7, 0
  br i1 %8, label %15, label %9

9:                                                ; preds = %2
  %10 = load i64, ptr %3, align 8, !tbaa !6
  %11 = call i64 @rbimpl_intern_const(ptr noundef @DSA_PRIVATE.rbimpl_id, ptr noundef @.str.25) #15
  store i64 %11, ptr %5, align 8, !tbaa !6
  %12 = load i64, ptr %5, align 8, !tbaa !6
  %13 = call i64 @rb_attr_get(i64 noundef %10, i64 noundef %12)
  %14 = icmp eq i64 %13, 20
  br label %15

15:                                               ; preds = %9, %2
  %16 = phi i1 [ true, %2 ], [ %14, %9 ]
  %17 = zext i1 %16 to i32
  ret i32 %17
}

; Function Attrs: nounwind sspstrong uwtable
define internal i64 @ossl_dsa_is_private(i64 noundef %0) #0 {
  %2 = alloca i64, align 8
  %3 = alloca ptr, align 8
  %4 = alloca ptr, align 8
  store i64 %0, ptr %2, align 8, !tbaa !6
  call void @llvm.lifetime.start.p0(i64 8, ptr %3) #11
  br label %5

5:                                                ; preds = %1
  call void @llvm.lifetime.start.p0(i64 8, ptr %4) #11
  br label %6

6:                                                ; preds = %5
  br label %7

7:                                                ; preds = %6
  %8 = load i64, ptr %2, align 8, !tbaa !6
  %9 = call ptr @rb_check_typeddata(i64 noundef %8, ptr noundef @ossl_evp_pkey_type)
  store ptr %9, ptr %4, align 8, !tbaa !17
  %10 = load ptr, ptr %4, align 8, !tbaa !17
  %11 = icmp ne ptr %10, null
  br i1 %11, label %14, label %12

12:                                               ; preds = %7
  %13 = load i64, ptr @rb_eRuntimeError, align 8, !tbaa !6
  call void (i64, ptr, ...) @rb_raise(i64 noundef %13, ptr noundef @.str.23) #12
  unreachable

14:                                               ; preds = %7
  br label %15

15:                                               ; preds = %14
  br label %16

16:                                               ; preds = %15
  %17 = load ptr, ptr %4, align 8, !tbaa !17
  %18 = call i32 @EVP_PKEY_get_base_id(ptr noundef %17)
  %19 = icmp ne i32 %18, 116
  br i1 %19, label %20, label %22

20:                                               ; preds = %16
  %21 = load i64, ptr @rb_eRuntimeError, align 8, !tbaa !6
  call void (i64, ptr, ...) @ossl_raise(i64 noundef %21, ptr noundef @.str.24) #12
  unreachable

22:                                               ; preds = %16
  br label %23

23:                                               ; preds = %22
  br label %24

24:                                               ; preds = %23
  %25 = load ptr, ptr %4, align 8, !tbaa !17
  %26 = call ptr @EVP_PKEY_get0_DSA(ptr noundef %25)
  store ptr %26, ptr %3, align 8, !tbaa !19
  call void @llvm.lifetime.end.p0(i64 8, ptr %4) #11
  br label %27

27:                                               ; preds = %24
  br label %28

28:                                               ; preds = %27
  %29 = load i64, ptr %2, align 8, !tbaa !6
  %30 = load ptr, ptr %3, align 8, !tbaa !19
  %31 = call i32 @DSA_PRIVATE(i64 noundef %29, ptr noundef %30)
  %32 = icmp ne i32 %31, 0
  %33 = select i1 %32, i64 20, i64 0
  call void @llvm.lifetime.end.p0(i64 8, ptr %3) #11
  ret i64 %33
}