; Function Attrs: nounwind sspstrong uwtable
define internal range(i64 0, 21) i64 @ossl_dsa_is_private(i64 noundef %0) #0 {
  %2 = alloca ptr, align 8
  %3 = tail call ptr @rb_check_typeddata(i64 noundef %0, ptr noundef nonnull @ossl_evp_pkey_type) #5
  %.not = icmp eq ptr %3, null
  br i1 %.not, label %4, label %6

4:                                                ; preds = %1
  %5 = load i64, ptr @rb_eRuntimeError, align 8, !tbaa !6
  tail call void (i64, ptr, ...) @rb_raise(i64 noundef %5, ptr noundef nonnull @.str.23) #6
  unreachable

6:                                                ; preds = %1
  %7 = tail call i32 @EVP_PKEY_get_base_id(ptr noundef nonnull %3) #5
  %.not5 = icmp eq i32 %7, 116
  br i1 %.not5, label %10, label %8

8:                                                ; preds = %6
  %9 = load i64, ptr @rb_eRuntimeError, align 8, !tbaa !6
  tail call void (i64, ptr, ...) @ossl_raise(i64 noundef %9, ptr noundef nonnull @.str.24) #6
  unreachable

10:                                               ; preds = %6
  %11 = tail call ptr @EVP_PKEY_get0_DSA(ptr noundef nonnull %3) #5
  call void @llvm.lifetime.start.p0(i64 8, ptr nonnull %2) #5
  call void @DSA_get0_key(ptr noundef %11, ptr noundef null, ptr noundef nonnull %2) #5
  %12 = load ptr, ptr %2, align 8, !tbaa !19
  %.not2.i = icmp eq ptr %12, null
  call void @llvm.lifetime.end.p0(i64 8, ptr nonnull %2) #5
  br i1 %.not2.i, label %13, label %DSA_PRIVATE.exit.thread

13:                                               ; preds = %10
  %.pr.i.i = load i64, ptr @DSA_PRIVATE.rbimpl_id, align 8, !tbaa !6
  %.not1.i.i = icmp eq i64 %.pr.i.i, 0
  br i1 %.not1.i.i, label %.lr.ph.i.i, label %DSA_PRIVATE.exit

.lr.ph.i.i:                                       ; preds = %13, %.lr.ph.i.i
  %14 = call i64 @rb_intern2(ptr noundef nonnull @.str.25, i64 noundef 7) #5
  store i64 %14, ptr @DSA_PRIVATE.rbimpl_id, align 8, !tbaa !6
  %.not.i.i = icmp eq i64 %14, 0
  br i1 %.not.i.i, label %.lr.ph.i.i, label %DSA_PRIVATE.exit, !llvm.loop !21

DSA_PRIVATE.exit:                                 ; preds = %.lr.ph.i.i, %13
  %.lcssa.i.i = phi i64 [ %.pr.i.i, %13 ], [ %14, %.lr.ph.i.i ]
  %15 = call i64 @rb_attr_get(i64 noundef %0, i64 noundef %.lcssa.i.i) #5
  %.fr = freeze i64 %15
  %.not9 = icmp eq i64 %.fr, 20
  %spec.select = select i1 %.not9, i64 20, i64 0
  br label %DSA_PRIVATE.exit.thread

DSA_PRIVATE.exit.thread:                          ; preds = %DSA_PRIVATE.exit, %10
  %16 = phi i64 [ 20, %10 ], [ %spec.select, %DSA_PRIVATE.exit ]
  ret i64 %16
}